target datalayout = "e-m:e-p270:32:32-p271:32:32-p272:64:64-i64:64-i128:128-f80:128-n8:16:32:64-S128"
target triple = "x86_64-pc-linux-gnu"

%class.SpinYield = type <{ %class.TimeInterval, i32, i32, i32, i32, i32, [4 x i8] }>
%class.TimeInterval = type { %class.CompositeCounterRepresentation }
%class.CompositeCounterRepresentation = type { %class.Representation }
%class.Representation = type { %class.PairRep }
%class.PairRep = type { i64, i64 }

@.str = private unnamed_addr constant [1 x i8] zeroinitializer, align 1
@.str.4 = private unnamed_addr constant [11 x i8] c"spins = %u\00", align 1
@.str.5 = private unnamed_addr constant [12 x i8] c"yields = %u\00", align 1
@.str.6 = private unnamed_addr constant [18 x i8] c"sleep = %lu usecs\00", align 1
@.str.7 = private unnamed_addr constant [11 x i8] c"no waiting\00", align 1
@.str.8 = private unnamed_addr constant [3 x i8] c"%s\00", align 1
@.str.9 = private unnamed_addr constant [3 x i8] c", \00", align 1

; Function Attrs: mustprogress nounwind uwtable
define linkonce_odr hidden noundef i64 @_ZNK14RepresentationI29CompositeElapsedCounterSourceE12microsecondsEv(ptr noundef nonnull align 8 dereferenceable(16) %0) #1 comdat align 2 {
  %2 = alloca ptr, align 8
  %3 = alloca %class.PairRep, align 8
  store ptr %0, ptr %2, align 8
  %4 = load ptr, ptr %2, align 8
  %5 = getelementptr inbounds %class.Representation, ptr %4, i32 0, i32 0
  call void @llvm.memcpy.p0.p0.i64(ptr align 8 %3, ptr align 8 %5, i64 16, i1 false)
  %6 = getelementptr inbounds { i64, i64 }, ptr %3, i32 0, i32 0
  %7 = load i64, ptr %6, align 8
  %8 = getelementptr inbounds { i64, i64 }, ptr %3, i32 0, i32 1
  %9 = load i64, ptr %8, align 8
  %10 = call noundef i64 @_ZN29CompositeElapsedCounterSource12microsecondsE7PairRepIllE(i64 %7, i64 %9)
  ret i64 %10
}

; Function Attrs: mustprogress nounwind uwtable
define linkonce_odr hidden noundef i64 @_ZNK30CompositeCounterRepresentationI29CompositeElapsedCounterSourceE5valueEv(ptr noundef nonnull align 8 dereferenceable(16) %0) #1 comdat align 2 {
  %2 = alloca ptr, align 8
  store ptr %0, ptr %2, align 8
  %3 = load ptr, ptr %2, align 8
  %4 = getelementptr inbounds %class.Representation, ptr %3, i32 0, i32 0
  %5 = getelementptr inbounds %class.PairRep, ptr %4, i32 0, i32 0
  %6 = load i64, ptr %5, align 8
  ret i64 %6
}

; Function Attrs: mustprogress nounwind uwtable
define internal noundef ptr @_ZL15print_separatorP12outputStreamPKc(ptr noundef %0, ptr noundef %1) #1 {
  %3 = alloca ptr, align 8
  %4 = alloca ptr, align 8
  store ptr %0, ptr %3, align 8
  store ptr %1, ptr %4, align 8
  %5 = load ptr, ptr %3, align 8
  %6 = load ptr, ptr %4, align 8
  call void (ptr, ptr, ...) @_ZN12outputStream5printEPKcz(ptr noundef nonnull align 8 dereferenceable(56) %5, ptr noundef @.str.8, ptr noundef %6)
  ret ptr @.str.9
}

; Function Attrs: mustprogress nounwind uwtable
define hidden void @_ZNK9SpinYield6reportEP12outputStream(ptr noundef nonnull align 8 dereferenceable(36) %0, ptr noundef %1) #1 align 2 {
  %3 = alloca ptr, align 8
  %4 = alloca ptr, align 8
  %5 = alloca ptr, align 8
  %6 = alloca ptr, align 8
  store ptr %0, ptr %3, align 8
  store ptr %1, ptr %4, align 8
  %7 = load ptr, ptr %3, align 8
  store ptr @.str, ptr %5, align 8
  %8 = load ptr, ptr %5, align 8
  store ptr %8, ptr %6, align 8
  %9 = getelementptr inbounds %class.SpinYield, ptr %7, i32 0, i32 1
  %10 = load i32, ptr %9, align 8
  %11 = icmp ugt i32 %10, 0
  br i1 %11, label %12, label %19

12:                                               ; preds = %2
  %13 = load ptr, ptr %4, align 8
  %14 = load ptr, ptr %6, align 8
  %15 = call noundef ptr @_ZL15print_separatorP12outputStreamPKc(ptr noundef %13, ptr noundef %14)
  store ptr %15, ptr %6, align 8
  %16 = load ptr, ptr %4, align 8
  %17 = getelementptr inbounds %class.SpinYield, ptr %7, i32 0, i32 1
  %18 = load i32, ptr %17, align 8
  call void (ptr, ptr, ...) @_ZN12outputStream5printEPKcz(ptr noundef nonnull align 8 dereferenceable(56) %16, ptr noundef @.str.4, i32 noundef %18)
  br label %19

19:                                               ; preds = %12, %2
  %20 = getelementptr inbounds %class.SpinYield, ptr %7, i32 0, i32 2
  %21 = load i32, ptr %20, align 4
  %22 = icmp ugt i32 %21, 0
  br i1 %22, label %23, label %30

23:                                               ; preds = %19
  %24 = load ptr, ptr %4, align 8
  %25 = load ptr, ptr %6, align 8
  %26 = call noundef ptr @_ZL15print_separatorP12outputStreamPKc(ptr noundef %24, ptr noundef %25)
  store ptr %26, ptr %6, align 8
  %27 = load ptr, ptr %4, align 8
  %28 = getelementptr inbounds %class.SpinYield, ptr %7, i32 0, i32 2
  %29 = load i32, ptr %28, align 4
  call void (ptr, ptr, ...) @_ZN12outputStream5printEPKcz(ptr noundef nonnull align 8 dereferenceable(56) %27, ptr noundef @.str.5, i32 noundef %29)
  br label %30

30:                                               ; preds = %23, %19
  %31 = getelementptr inbounds %class.SpinYield, ptr %7, i32 0, i32 0
  %32 = call noundef i64 @_ZNK30CompositeCounterRepresentationI29CompositeElapsedCounterSourceE5valueEv(ptr noundef nonnull align 8 dereferenceable(16) %31)
  %33 = icmp ne i64 %32, 0
  br i1 %33, label %34, label %41

34:                                               ; preds = %30
  %35 = load ptr, ptr %4, align 8
  %36 = load ptr, ptr %6, align 8
  %37 = call noundef ptr @_ZL15print_separatorP12outputStreamPKc(ptr noundef %35, ptr noundef %36)
  store ptr %37, ptr %6, align 8
  %38 = load ptr, ptr %4, align 8
  %39 = getelementptr inbounds %class.SpinYield, ptr %7, i32 0, i32 0
  %40 = call noundef i64 @_ZNK14RepresentationI29CompositeElapsedCounterSourceE12microsecondsEv(ptr noundef nonnull align 8 dereferenceable(16) %39)
  call void (ptr, ptr, ...) @_ZN12outputStream5printEPKcz(ptr noundef nonnull align 8 dereferenceable(56) %38, ptr noundef @.str.6, i64 noundef %40)
  br label %41

41:                                               ; preds = %34, %30
  %42 = load ptr, ptr %6, align 8
  %43 = load ptr, ptr %5, align 8
  %44 = icmp eq ptr %42, %43
  br i1 %44, label %45, label %47

45:                                               ; preds = %41
  %46 = load ptr, ptr %4, align 8
  call void (ptr, ptr, ...) @_ZN12outputStream5printEPKcz(ptr noundef nonnull align 8 dereferenceable(56) %46, ptr noundef @.str.7)
  br label %47

47:                                               ; preds = %45, %41
  ret void
}