; Function Attrs: mustprogress nounwind uwtable
define hidden void @_ZNK9SpinYield6reportEP12outputStream(ptr nocapture noundef nonnull readonly align 8 dereferenceable(36) %0, ptr noundef %1) local_unnamed_addr #1 align 2 {
  %3 = getelementptr inbounds i8, ptr %0, i64 16
  %4 = load i32, ptr %3, align 8
  %.not = icmp eq i32 %4, 0
  br i1 %.not, label %7, label %5

5:                                                ; preds = %2
  tail call void (ptr, ptr, ...) @_ZN12outputStream5printEPKcz(ptr noundef nonnull align 8 dereferenceable(56) %1, ptr noundef nonnull @.str.8, ptr noundef nonnull @.str) #4
  %6 = load i32, ptr %3, align 8
  tail call void (ptr, ptr, ...) @_ZN12outputStream5printEPKcz(ptr noundef nonnull align 8 dereferenceable(56) %1, ptr noundef nonnull @.str.4, i32 noundef %6) #4
  br label %7

7:                                                ; preds = %5, %2
  %.0 = phi ptr [ @.str.9, %5 ], [ @.str, %2 ]
  %8 = getelementptr inbounds i8, ptr %0, i64 20
  %9 = load i32, ptr %8, align 4
  %.not14 = icmp eq i32 %9, 0
  br i1 %.not14, label %12, label %10

10:                                               ; preds = %7
  tail call void (ptr, ptr, ...) @_ZN12outputStream5printEPKcz(ptr noundef nonnull align 8 dereferenceable(56) %1, ptr noundef nonnull @.str.8, ptr noundef nonnull %.0) #4
  %11 = load i32, ptr %8, align 4
  tail call void (ptr, ptr, ...) @_ZN12outputStream5printEPKcz(ptr noundef nonnull align 8 dereferenceable(56) %1, ptr noundef nonnull @.str.5, i32 noundef %11) #4
  br label %12

12:                                               ; preds = %10, %7
  %.1 = phi ptr [ @.str.9, %10 ], [ %.0, %7 ]
  %13 = load i64, ptr %0, align 8
  %.not15 = icmp eq i64 %13, 0
  br i1 %.not15, label %16, label %14

14:                                               ; preds = %12
  tail call void (ptr, ptr, ...) @_ZN12outputStream5printEPKcz(ptr noundef nonnull align 8 dereferenceable(56) %1, ptr noundef nonnull @.str.8, ptr noundef nonnull %.1) #4
  %.sroa.0.0.copyload.i = load i64, ptr %0, align 8
  %.sroa.2.0..sroa_idx.i = getelementptr inbounds i8, ptr %0, i64 8
  %.sroa.2.0.copyload.i = load i64, ptr %.sroa.2.0..sroa_idx.i, align 8
  %15 = tail call noundef i64 @_ZN29CompositeElapsedCounterSource12microsecondsE7PairRepIllE(i64 %.sroa.0.0.copyload.i, i64 %.sroa.2.0.copyload.i) #4
  tail call void (ptr, ptr, ...) @_ZN12outputStream5printEPKcz(ptr noundef nonnull align 8 dereferenceable(56) %1, ptr noundef nonnull @.str.6, i64 noundef %15) #4
  br label %16

16:                                               ; preds = %14, %12
  %.2 = phi ptr [ @.str.9, %14 ], [ %.1, %12 ]
  %17 = icmp eq ptr %.2, @.str
  br i1 %17, label %18, label %19

18:                                               ; preds = %16
  tail call void (ptr, ptr, ...) @_ZN12outputStream5printEPKcz(ptr noundef nonnull align 8 dereferenceable(56) %1, ptr noundef nonnull @.str.7) #4
  br label %19

19:                                               ; preds = %18, %16
  ret void
}